target datalayout = "e-m:e-p270:32:32-p271:32:32-p272:64:64-i64:64-i128:128-f80:128-n8:16:32:64-S128"
target triple = "x86_64-pc-linux-gnu"

%class.ZReferenceProcessor = type { %class.ReferenceDiscoverer, ptr, ptr, i8, %class.ZValue, %class.ZValue, %class.ZValue, %class.ZValue.0, %class.ZValue.1, i64 }
%class.ReferenceDiscoverer = type { ptr }
%class.ZValue = type { i64 }
%class.ZValue.0 = type { i64 }
%class.ZValue.1 = type { i64 }

; Function Attrs: mustprogress nounwind uwtable
define linkonce_odr hidden noundef ptr @_Z11cast_to_oopI8zaddressEP7oopDescT_(i64 noundef %0) #1 comdat {
  %2 = alloca i64, align 8
  store i64 %0, ptr %2, align 8
  %3 = load i64, ptr %2, align 8
  %4 = inttoptr i64 %3 to ptr
  ret ptr %4
}

; Function Attrs: mustprogress nounwind uwtable
define linkonce_odr hidden noundef ptr @_Z6to_oop8zaddress(i64 noundef %0) #1 comdat {
  %2 = alloca i64, align 8
  %3 = alloca ptr, align 8
  store i64 %0, ptr %2, align 8
  %4 = load i64, ptr %2, align 8
  %5 = call noundef ptr @_Z11cast_to_oopI8zaddressEP7oopDescT_(i64 noundef %4)
  store ptr %5, ptr %3, align 8
  %6 = load ptr, ptr %3, align 8
  ret ptr %6
}

; Function Attrs: mustprogress nounwind uwtable
define hidden noundef zeroext i1 @_ZNK19ZReferenceProcessor14is_softly_liveE8zaddress13ReferenceType(ptr noundef nonnull align 8 dereferenceable(80) %0, i64 noundef %1, i32 noundef %2) #1 align 2 {
  %4 = alloca i1, align 1
  %5 = alloca ptr, align 8
  %6 = alloca i64, align 8
  %7 = alloca i32, align 4
  %8 = alloca i64, align 8
  store ptr %0, ptr %5, align 8
  store i64 %1, ptr %6, align 8
  store i32 %2, ptr %7, align 4
  %9 = load ptr, ptr %5, align 8
  %10 = load i32, ptr %7, align 4
  %11 = icmp ne i32 %10, 1
  br i1 %11, label %12, label %13

12:                                               ; preds = %3
  store i1 false, ptr %4, align 1
  br label %25

13:                                               ; preds = %3
  %14 = call noundef i64 @_ZN27java_lang_ref_SoftReference5clockEv()
  store i64 %14, ptr %8, align 8
  %15 = getelementptr inbounds %class.ZReferenceProcessor, ptr %9, i32 0, i32 2
  %16 = load ptr, ptr %15, align 8
  %17 = load i64, ptr %6, align 8
  %18 = call noundef ptr @_Z6to_oop8zaddress(i64 noundef %17)
  %19 = load i64, ptr %8, align 8
  %20 = load ptr, ptr %16, align 8
  %21 = getelementptr inbounds ptr, ptr %20, i64 0
  %22 = load ptr, ptr %21, align 8
  %23 = call noundef zeroext i1 %22(ptr noundef nonnull align 8 dereferenceable(8) %16, ptr noundef %18, i64 noundef %19)
  %24 = xor i1 %23, true
  store i1 %24, ptr %4, align 1
  br label %25

25:                                               ; preds = %13, %12
  %26 = load i1, ptr %4, align 1
  ret i1 %26
}