; Function Attrs: mustprogress nounwind uwtable
define hidden noundef zeroext i1 @_ZNK19ZReferenceProcessor14is_softly_liveE8zaddress13ReferenceType(ptr nocapture noundef nonnull readonly align 8 dereferenceable(80) %0, i64 noundef %1, i32 noundef %2) local_unnamed_addr #1 align 2 {
  %.not = icmp eq i32 %2, 1
  br i1 %.not, label %4, label %13

4:                                                ; preds = %3
  %5 = tail call noundef i64 @_ZN27java_lang_ref_SoftReference5clockEv() #11
  %6 = getelementptr inbounds i8, ptr %0, i64 16
  %7 = load ptr, ptr %6, align 8
  %8 = inttoptr i64 %1 to ptr
  %9 = load ptr, ptr %7, align 8
  %10 = load ptr, ptr %9, align 8
  %11 = tail call noundef zeroext i1 %10(ptr noundef nonnull align 8 dereferenceable(8) %7, ptr noundef %8, i64 noundef %5) #11
  %12 = xor i1 %11, true
  br label %13

13:                                               ; preds = %3, %4
  %.0 = phi i1 [ %12, %4 ], [ false, %3 ]
  ret i1 %.0
}